; Function Attrs: nounwind uwtable
define range(i64 -64, 1) i64 @ZSTD_DCtx_loadDictionary(ptr noundef captures(none) %0, ptr noundef %1, i64 noundef %2) local_unnamed_addr #0 {
  %4 = getelementptr inbounds nuw i8, ptr %0, i64 30236
  %5 = load i32, ptr %4, align 4, !tbaa !127
  %.not.i = icmp eq i32 %5, 0
  br i1 %.not.i, label %6, label %ZSTD_DCtx_loadDictionary_advanced.exit

6:                                                ; preds = %3
  %7 = getelementptr inbounds nuw i8, ptr %0, i64 30184
  %8 = load ptr, ptr %7, align 8, !tbaa !3
  %9 = tail call i64 @ZSTD_freeDDict(ptr noundef %8) #17
  %10 = getelementptr inbounds nuw i8, ptr %0, i64 30208
  store i32 0, ptr %10, align 8, !tbaa !23
  tail call void @llvm.memset.p0.i64(ptr noundef nonnull align 8 dereferenceable(16) %7, i8 0, i64 16, i1 false)
  %11 = icmp ne ptr %1, null
  %12 = icmp ne i64 %2, 0
  %or.cond.i = and i1 %11, %12
  br i1 %or.cond.i, label %13, label %ZSTD_DCtx_loadDictionary_advanced.exit

13:                                               ; preds = %6
  %14 = getelementptr inbounds nuw i8, ptr %0, i64 30128
  %15 = tail call ptr @ZSTD_createDDict_advanced(ptr noundef nonnull %1, i64 noundef %2, i32 noundef 0, i32 noundef 0, ptr noundef nonnull byval(%struct.ZSTD_customMem) align 8 %14) #17
  store ptr %15, ptr %7, align 8, !tbaa !3
  %16 = icmp eq ptr %15, null
  br i1 %16, label %ZSTD_DCtx_loadDictionary_advanced.exit, label %17

17:                                               ; preds = %13
  %18 = getelementptr inbounds nuw i8, ptr %0, i64 30192
  store ptr %15, ptr %18, align 8, !tbaa !109
  store i32 -1, ptr %10, align 8, !tbaa !23
  br label %ZSTD_DCtx_loadDictionary_advanced.exit

ZSTD_DCtx_loadDictionary_advanced.exit:           ; preds = %3, %6, %13, %17
  %.0.i = phi i64 [ -60, %3 ], [ -64, %13 ], [ 0, %17 ], [ 0, %6 ]
  ret i64 %.0.i
}